; Function Attrs: mustprogress nofree norecurse nosync nounwind willreturn memory(argmem: readwrite) uwtable
define dso_local void @_ZN5clang8comments5Lexer23setupAndLexVerbatimLineERNS0_5TokenEPKcPKNS0_11CommandInfoE(ptr nocapture noundef nonnull align 8 dereferenceable(104) %0, ptr nocapture noundef nonnull writeonly align 8 dereferenceable(24) %1, ptr noundef %2, ptr nocapture noundef readonly %3) local_unnamed_addr #5 align 2 {
  %5 = getelementptr inbounds nuw i8, ptr %0, i64 40
  %6 = load ptr, ptr %5, align 8
  %7 = ptrtoint ptr %2 to i64
  %8 = ptrtoint ptr %6 to i64
  %9 = sub i64 %7, %8
  %10 = trunc i64 %9 to i32
  %11 = getelementptr inbounds nuw i8, ptr %0, i64 24
  %12 = load ptr, ptr %11, align 8
  %13 = ptrtoint ptr %12 to i64
  %14 = sub i64 %8, %13
  %15 = trunc i64 %14 to i32
  %16 = getelementptr inbounds nuw i8, ptr %0, i64 56
  %17 = load i32, ptr %16, align 8
  %18 = add i32 %17, %15
  store i32 %18, ptr %1, align 8
  %19 = getelementptr inbounds nuw i8, ptr %1, i64 4
  store i32 9, ptr %19, align 4
  %20 = getelementptr inbounds nuw i8, ptr %1, i64 12
  store i32 %10, ptr %20, align 4
  store ptr %2, ptr %5, align 8
  %21 = getelementptr inbounds nuw i8, ptr %3, i64 16
  %22 = load i64, ptr %21, align 8
  %23 = trunc i64 %22 to i32
  %24 = and i32 %23, 1048575
  %25 = getelementptr inbounds nuw i8, ptr %1, i64 8
  store i32 %24, ptr %25, align 8
  %26 = getelementptr inbounds nuw i8, ptr %0, i64 62
  store i8 3, ptr %26, align 2
  ret void
}